; Function Attrs: nounwind uwtable
define ptr @Aig_Oper(ptr noundef %0, ptr noundef %1, ptr noundef %2, i32 noundef %3) local_unnamed_addr #0 {
  switch i32 %3, label %9 [
    i32 5, label %5
    i32 6, label %7
  ]

5:                                                ; preds = %4
  %6 = tail call ptr @Aig_And(ptr noundef %0, ptr noundef %1, ptr noundef %2)
  br label %9

7:                                                ; preds = %4
  %8 = tail call ptr @Aig_Exor(ptr noundef %0, ptr noundef %1, ptr noundef %2)
  br label %9

9:                                                ; preds = %4, %7, %5
  %.0 = phi ptr [ %6, %5 ], [ %8, %7 ], [ null, %4 ]
  ret ptr %.0
}